target datalayout = "e-m:e-p270:32:32-p271:32:32-p272:64:64-i64:64-i128:128-f80:128-n8:16:32:64-S128"
target triple = "x86_64-pc-linux-gnu"

%struct._e_guid_t = type { i32, i16, i16, [8 x i8] }
%struct.nstime_t = type { i64, i32 }
%struct._packet_info = type { ptr, ptr, i32, i32, %struct.nstime_t, %struct.nstime_t, %struct.nstime_t, i8, ptr, ptr, ptr, ptr, %struct._address, %struct._address, %struct._address, %struct._address, %struct._address, %struct._address, i32, ptr, i8, [3 x i8], %struct.anon.0, i32, i32, i32, i32, ptr, i8, ptr, ptr, i16, i16, i32, i32, i16, i32, i32, ptr, ptr, ptr, i8, i8, i16, i16, i16, i32, i16, i16, ptr, ptr, ptr, ptr, ptr, i32, i32 }
%struct._address = type { i32, i32, ptr, ptr }
%struct.anon.0 = type { i8, [3 x i8] }

@hf_remunk_public_refs = internal global i32 0, align 4
@hf_remunk_reminterfaceref = internal global i32 0, align 4
@hf_remunk_interface_refs = internal global i32 0, align 4
@hf_remunk_private_refs = internal global i32 0, align 4
@ett_remunk_reminterfaceref = internal global i32 0, align 4
@hf_dcom_ipid = external global i32, align 4
@.str.32 = private unnamed_addr constant [14 x i8] c" Cnt=%u Refs=\00", align 1
@.str.33 = private unnamed_addr constant [7 x i8] c" Cnt=0\00", align 1
@.str.34 = private unnamed_addr constant [45 x i8] c"[%u]: IPID=%s, PublicRefs=%u, PrivateRefs=%u\00", align 1
@.str.35 = private unnamed_addr constant [1 x i8] zeroinitializer, align 1
@.str.36 = private unnamed_addr constant [6 x i8] c"%u-%u\00", align 1
@.str.37 = private unnamed_addr constant [7 x i8] c",%u-%u\00", align 1
@.str.38 = private unnamed_addr constant [5 x i8] c",...\00", align 1

; Function Attrs: null_pointer_is_valid sspstrong uwtable
define internal i32 @dissect_remunk_remrelease_rqst(ptr noundef %0, i32 noundef %1, ptr noundef %2, ptr noundef %3, ptr noundef %4, ptr noundef %5) #0 {
  %7 = alloca ptr, align 8
  %8 = alloca i32, align 4
  %9 = alloca ptr, align 8
  %10 = alloca ptr, align 8
  %11 = alloca ptr, align 8
  %12 = alloca ptr, align 8
  %13 = alloca i32, align 4
  %14 = alloca i32, align 4
  %15 = alloca i32, align 4
  %16 = alloca %struct._e_guid_t, align 4
  %17 = alloca i32, align 4
  %18 = alloca i32, align 4
  %19 = alloca ptr, align 8
  %20 = alloca ptr, align 8
  %21 = alloca ptr, align 8
  %22 = alloca i32, align 4
  store ptr %0, ptr %7, align 8
  store i32 %1, ptr %8, align 4
  store ptr %2, ptr %9, align 8
  store ptr %3, ptr %10, align 8
  store ptr %4, ptr %11, align 8
  store ptr %5, ptr %12, align 8
  call void @llvm.lifetime.start.p0(i64 4, ptr %13) #6
  call void @llvm.lifetime.start.p0(i64 4, ptr %14) #6
  call void @llvm.lifetime.start.p0(i64 4, ptr %15) #6
  call void @llvm.lifetime.start.p0(i64 16, ptr %16) #6
  call void @llvm.lifetime.start.p0(i64 4, ptr %17) #6
  call void @llvm.lifetime.start.p0(i64 4, ptr %18) #6
  call void @llvm.lifetime.start.p0(i64 8, ptr %19) #6
  call void @llvm.lifetime.start.p0(i64 8, ptr %20) #6
  call void @llvm.lifetime.start.p0(i64 8, ptr %21) #6
  call void @llvm.lifetime.start.p0(i64 4, ptr %22) #6
  %23 = load ptr, ptr %7, align 8
  %24 = load i32, ptr %8, align 4
  %25 = load ptr, ptr %9, align 8
  %26 = load ptr, ptr %10, align 8
  %27 = load ptr, ptr %11, align 8
  %28 = load ptr, ptr %12, align 8
  %29 = call i32 @dissect_dcom_this(ptr noundef %23, i32 noundef %24, ptr noundef %25, ptr noundef %26, ptr noundef %27, ptr noundef %28)
  store i32 %29, ptr %8, align 4
  %30 = load ptr, ptr %7, align 8
  %31 = load i32, ptr %8, align 4
  %32 = load ptr, ptr %9, align 8
  %33 = load ptr, ptr %10, align 8
  %34 = load ptr, ptr %11, align 8
  %35 = load ptr, ptr %12, align 8
  %36 = call i32 @dissect_dcom_dcerpc_pointer(ptr noundef %30, i32 noundef %31, ptr noundef %32, ptr noundef %33, ptr noundef %34, ptr noundef %35, ptr noundef %13)
  store i32 %36, ptr %8, align 4
  %37 = load ptr, ptr %7, align 8
  %38 = load i32, ptr %8, align 4
  %39 = load ptr, ptr %9, align 8
  %40 = load ptr, ptr %10, align 8
  %41 = load ptr, ptr %11, align 8
  %42 = load ptr, ptr %12, align 8
  %43 = load i32, ptr @hf_remunk_interface_refs, align 4
  %44 = call i32 @dissect_ndr_uint32(ptr noundef %37, i32 noundef %38, ptr noundef %39, ptr noundef %40, ptr noundef %41, ptr noundef %42, i32 noundef %43, ptr noundef %14)
  store i32 %44, ptr %8, align 4
  %45 = load i32, ptr %14, align 4
  %46 = icmp ne i32 %45, 0
  br i1 %46, label %47, label %52

47:                                               ; preds = %6
  %48 = load ptr, ptr %9, align 8
  %49 = getelementptr inbounds nuw %struct._packet_info, ptr %48, i32 0, i32 1
  %50 = load ptr, ptr %49, align 8
  %51 = load i32, ptr %14, align 4
  call void (ptr, i32, ptr, ...) @col_append_fstr(ptr noundef %50, i32 noundef 25, ptr noundef @.str.32, i32 noundef %51)
  br label %56

52:                                               ; preds = %6
  %53 = load ptr, ptr %9, align 8
  %54 = getelementptr inbounds nuw %struct._packet_info, ptr %53, i32 0, i32 1
  %55 = load ptr, ptr %54, align 8
  call void @col_append_str(ptr noundef %55, i32 noundef 25, ptr noundef @.str.33)
  br label %56

56:                                               ; preds = %52, %47
  store i32 1, ptr %15, align 4
  br label %57

57:                                               ; preds = %120, %56
  %58 = load i32, ptr %14, align 4
  %59 = add i32 %58, -1
  store i32 %59, ptr %14, align 4
  %60 = icmp ne i32 %58, 0
  br i1 %60, label %61, label %129

61:                                               ; preds = %57
  %62 = load ptr, ptr %10, align 8
  %63 = load i32, ptr @hf_remunk_reminterfaceref, align 4
  %64 = load ptr, ptr %7, align 8
  %65 = load i32, ptr %8, align 4
  %66 = call ptr @proto_tree_add_item(ptr noundef %62, i32 noundef %63, ptr noundef %64, i32 noundef %65, i32 noundef 0, i32 noundef 0)
  store ptr %66, ptr %20, align 8
  %67 = load ptr, ptr %20, align 8
  %68 = load i32, ptr @ett_remunk_reminterfaceref, align 4
  %69 = call ptr @proto_item_add_subtree(ptr noundef %67, i32 noundef %68)
  store ptr %69, ptr %21, align 8
  %70 = load i32, ptr %8, align 4
  store i32 %70, ptr %22, align 4
  %71 = load ptr, ptr %7, align 8
  %72 = load i32, ptr %8, align 4
  %73 = load ptr, ptr %9, align 8
  %74 = load ptr, ptr %21, align 8
  %75 = load ptr, ptr %11, align 8
  %76 = load ptr, ptr %12, align 8
  %77 = load i32, ptr @hf_dcom_ipid, align 4
  %78 = call i32 @dissect_dcom_UUID(ptr noundef %71, i32 noundef %72, ptr noundef %73, ptr noundef %74, ptr noundef %75, ptr noundef %76, i32 noundef %77, ptr noundef %16)
  store i32 %78, ptr %8, align 4
  %79 = load ptr, ptr %7, align 8
  %80 = load i32, ptr %8, align 4
  %81 = load ptr, ptr %9, align 8
  %82 = load ptr, ptr %21, align 8
  %83 = load ptr, ptr %11, align 8
  %84 = load ptr, ptr %12, align 8
  %85 = load i32, ptr @hf_remunk_public_refs, align 4
  %86 = call i32 @dissect_ndr_uint32(ptr noundef %79, i32 noundef %80, ptr noundef %81, ptr noundef %82, ptr noundef %83, ptr noundef %84, i32 noundef %85, ptr noundef %17)
  store i32 %86, ptr %8, align 4
  %87 = load ptr, ptr %7, align 8
  %88 = load i32, ptr %8, align 4
  %89 = load ptr, ptr %9, align 8
  %90 = load ptr, ptr %21, align 8
  %91 = load ptr, ptr %11, align 8
  %92 = load ptr, ptr %12, align 8
  %93 = load i32, ptr @hf_remunk_private_refs, align 4
  %94 = call i32 @dissect_ndr_uint32(ptr noundef %87, i32 noundef %88, ptr noundef %89, ptr noundef %90, ptr noundef %91, ptr noundef %92, i32 noundef %93, ptr noundef %18)
  store i32 %94, ptr %8, align 4
  %95 = load ptr, ptr %20, align 8
  %96 = load i32, ptr %15, align 4
  %97 = load ptr, ptr %9, align 8
  %98 = getelementptr inbounds nuw %struct._packet_info, ptr %97, i32 0, i32 51
  %99 = load ptr, ptr %98, align 8
  %100 = call ptr @guids_resolve_guid_to_str(ptr noundef %16, ptr noundef %99)
  %101 = load i32, ptr %17, align 4
  %102 = load i32, ptr %18, align 4
  call void (ptr, ptr, ...) @proto_item_append_text(ptr noundef %95, ptr noundef @.str.34, i32 noundef %96, ptr noundef %100, i32 noundef %101, i32 noundef %102)
  %103 = load ptr, ptr %20, align 8
  %104 = load i32, ptr %8, align 4
  %105 = load i32, ptr %22, align 4
  %106 = sub i32 %104, %105
  call void @proto_item_set_len(ptr noundef %103, i32 noundef %106)
  store ptr @.str.35, ptr %19, align 8
  %107 = load i32, ptr %15, align 4
  %108 = icmp eq i32 %107, 1
  br i1 %108, label %109, label %110

109:                                              ; preds = %61
  store ptr @.str.36, ptr %19, align 8
  br label %120

110:                                              ; preds = %61
  %111 = load i32, ptr %15, align 4
  %112 = icmp ult i32 %111, 10
  br i1 %112, label %113, label %114

113:                                              ; preds = %110
  store ptr @.str.37, ptr %19, align 8
  br label %119

114:                                              ; preds = %110
  %115 = load i32, ptr %15, align 4
  %116 = icmp eq i32 %115, 10
  br i1 %116, label %117, label %118

117:                                              ; preds = %114
  store ptr @.str.38, ptr %19, align 8
  br label %118

118:                                              ; preds = %117, %114
  br label %119

119:                                              ; preds = %118, %113
  br label %120

120:                                              ; preds = %119, %109
  %121 = load ptr, ptr %9, align 8
  %122 = getelementptr inbounds nuw %struct._packet_info, ptr %121, i32 0, i32 1
  %123 = load ptr, ptr %122, align 8
  %124 = load ptr, ptr %19, align 8
  %125 = load i32, ptr %17, align 4
  %126 = load i32, ptr %18, align 4
  call void (ptr, i32, ptr, ...) @col_append_fstr(ptr noundef %123, i32 noundef 25, ptr noundef %124, i32 noundef %125, i32 noundef %126)
  %127 = load i32, ptr %15, align 4
  %128 = add i32 %127, 1
  store i32 %128, ptr %15, align 4
  br label %57, !llvm.loop !9

129:                                              ; preds = %57
  %130 = load i32, ptr %8, align 4
  call void @llvm.lifetime.end.p0(i64 4, ptr %22) #6
  call void @llvm.lifetime.end.p0(i64 8, ptr %21) #6
  call void @llvm.lifetime.end.p0(i64 8, ptr %20) #6
  call void @llvm.lifetime.end.p0(i64 8, ptr %19) #6
  call void @llvm.lifetime.end.p0(i64 4, ptr %18) #6
  call void @llvm.lifetime.end.p0(i64 4, ptr %17) #6
  call void @llvm.lifetime.end.p0(i64 16, ptr %16) #6
  call void @llvm.lifetime.end.p0(i64 4, ptr %15) #6
  call void @llvm.lifetime.end.p0(i64 4, ptr %14) #6
  call void @llvm.lifetime.end.p0(i64 4, ptr %13) #6
  ret i32 %130
}