; Function Attrs: null_pointer_is_valid sspstrong uwtable
define internal i32 @dissect_remunk_remrelease_rqst(ptr noundef %0, i32 noundef %1, ptr noundef %2, ptr noundef %3, ptr noundef %4, ptr noundef %5) #0 {
  %7 = alloca i32, align 4
  %8 = alloca i32, align 4
  %9 = alloca %struct._e_guid_t, align 4
  %10 = alloca i32, align 4
  %11 = alloca i32, align 4
  call void @llvm.lifetime.start.p0(i64 4, ptr nonnull %7) #6
  call void @llvm.lifetime.start.p0(i64 4, ptr nonnull %8) #6
  call void @llvm.lifetime.start.p0(i64 16, ptr nonnull %9) #6
  call void @llvm.lifetime.start.p0(i64 4, ptr nonnull %10) #6
  call void @llvm.lifetime.start.p0(i64 4, ptr nonnull %11) #6
  %12 = tail call i32 @dissect_dcom_this(ptr noundef %0, i32 noundef %1, ptr noundef %2, ptr noundef %3, ptr noundef %4, ptr noundef %5)
  %13 = call i32 @dissect_dcom_dcerpc_pointer(ptr noundef %0, i32 noundef %12, ptr noundef %2, ptr noundef %3, ptr noundef %4, ptr noundef %5, ptr noundef nonnull %7)
  %14 = load i32, ptr @hf_remunk_interface_refs, align 4
  %15 = call i32 @dissect_ndr_uint32(ptr noundef %0, i32 noundef %13, ptr noundef %2, ptr noundef %3, ptr noundef %4, ptr noundef %5, i32 noundef %14, ptr noundef nonnull %8)
  %16 = load i32, ptr %8, align 4
  %.not = icmp eq i32 %16, 0
  %17 = getelementptr inbounds nuw i8, ptr %2, i64 8
  %18 = load ptr, ptr %17, align 8
  br i1 %.not, label %20, label %19

19:                                               ; preds = %6
  call void (ptr, i32, ptr, ...) @col_append_fstr(ptr noundef %18, i32 noundef 25, ptr noundef nonnull @.str.32, i32 noundef %16)
  br label %21

20:                                               ; preds = %6
  call void @col_append_str(ptr noundef %18, i32 noundef 25, ptr noundef nonnull @.str.33)
  br label %21

21:                                               ; preds = %20, %19
  %22 = load i32, ptr %8, align 4
  %23 = add i32 %22, -1
  store i32 %23, ptr %8, align 4
  %.not5859 = icmp eq i32 %22, 0
  br i1 %.not5859, label %._crit_edge, label %.lr.ph

.lr.ph:                                           ; preds = %21
  %24 = getelementptr inbounds nuw i8, ptr %2, i64 408
  %25 = getelementptr inbounds nuw i8, ptr %2, i64 8
  br label %26

26:                                               ; preds = %.lr.ph, %47
  %.061 = phi i32 [ %15, %.lr.ph ], [ %36, %47 ]
  %.05560 = phi i32 [ 1, %.lr.ph ], [ %51, %47 ]
  %27 = load i32, ptr @hf_remunk_reminterfaceref, align 4
  %28 = call ptr @proto_tree_add_item(ptr noundef %3, i32 noundef %27, ptr noundef %0, i32 noundef %.061, i32 noundef 0, i32 noundef 0)
  %29 = load i32, ptr @ett_remunk_reminterfaceref, align 4
  %30 = call ptr @proto_item_add_subtree(ptr noundef %28, i32 noundef %29)
  %31 = load i32, ptr @hf_dcom_ipid, align 4
  %32 = call i32 @dissect_dcom_UUID(ptr noundef %0, i32 noundef %.061, ptr noundef %2, ptr noundef %30, ptr noundef %4, ptr noundef %5, i32 noundef %31, ptr noundef nonnull %9)
  %33 = load i32, ptr @hf_remunk_public_refs, align 4
  %34 = call i32 @dissect_ndr_uint32(ptr noundef %0, i32 noundef %32, ptr noundef %2, ptr noundef %30, ptr noundef %4, ptr noundef %5, i32 noundef %33, ptr noundef nonnull %10)
  %35 = load i32, ptr @hf_remunk_private_refs, align 4
  %36 = call i32 @dissect_ndr_uint32(ptr noundef %0, i32 noundef %34, ptr noundef %2, ptr noundef %30, ptr noundef %4, ptr noundef %5, i32 noundef %35, ptr noundef nonnull %11)
  %37 = load ptr, ptr %24, align 8
  %38 = call ptr @guids_resolve_guid_to_str(ptr noundef nonnull %9, ptr noundef %37)
  %39 = load i32, ptr %10, align 4
  %40 = load i32, ptr %11, align 4
  call void (ptr, ptr, ...) @proto_item_append_text(ptr noundef %28, ptr noundef nonnull @.str.34, i32 noundef %.05560, ptr noundef %38, i32 noundef %39, i32 noundef %40)
  %41 = sub i32 %36, %.061
  call void @proto_item_set_len(ptr noundef %28, i32 noundef %41)
  %42 = icmp eq i32 %.05560, 1
  br i1 %42, label %47, label %43

43:                                               ; preds = %26
  %44 = icmp ult i32 %.05560, 10
  br i1 %44, label %47, label %45

45:                                               ; preds = %43
  %46 = icmp eq i32 %.05560, 10
  %spec.select = select i1 %46, ptr @.str.38, ptr @.str.35
  br label %47

47:                                               ; preds = %45, %43, %26
  %.056 = phi ptr [ @.str.36, %26 ], [ @.str.37, %43 ], [ %spec.select, %45 ]
  %48 = load ptr, ptr %25, align 8
  %49 = load i32, ptr %10, align 4
  %50 = load i32, ptr %11, align 4
  call void (ptr, i32, ptr, ...) @col_append_fstr(ptr noundef %48, i32 noundef 25, ptr noundef nonnull %.056, i32 noundef %49, i32 noundef %50)
  %51 = add i32 %.05560, 1
  %52 = load i32, ptr %8, align 4
  %53 = add i32 %52, -1
  store i32 %53, ptr %8, align 4
  %.not58 = icmp eq i32 %52, 0
  br i1 %.not58, label %._crit_edge, label %26, !llvm.loop !9

._crit_edge:                                      ; preds = %47, %21
  %.0.lcssa = phi i32 [ %15, %21 ], [ %36, %47 ]
  call void @llvm.lifetime.end.p0(i64 4, ptr nonnull %11) #6
  call void @llvm.lifetime.end.p0(i64 4, ptr nonnull %10) #6
  call void @llvm.lifetime.end.p0(i64 16, ptr nonnull %9) #6
  call void @llvm.lifetime.end.p0(i64 4, ptr nonnull %8) #6
  call void @llvm.lifetime.end.p0(i64 4, ptr nonnull %7) #6
  ret i32 %.0.lcssa
}